target datalayout = "e-m:e-p270:32:32-p271:32:32-p272:64:64-i64:64-i128:128-f80:128-n8:16:32:64-S128"
target triple = "x86_64-pc-linux-gnu"

%class.btMultiBodyDynamicsWorld = type { %class.btDiscreteDynamicsWorld.base, [4 x i8], %class.btAlignedObjectArray.8, %class.btAlignedObjectArray.10, %class.btAlignedObjectArray.10, ptr, ptr, %class.btAlignedObjectArray.12, %class.btAlignedObjectArray.14, %class.btAlignedObjectArray.12, %class.btAlignedObjectArray.14, %class.btAlignedObjectArray.16, %class.btAlignedObjectArray.14, %class.btAlignedObjectArray.18 }
%class.btDiscreteDynamicsWorld.base = type <{ %class.btDynamicsWorld, %class.btAlignedObjectArray.0, ptr, ptr, ptr, %class.btAlignedObjectArray.0, %class.btAlignedObjectArray.2, %class.btVector3, float, float, i8, i8, i8, i8, [4 x i8], %class.btAlignedObjectArray.4, i32, i8, [3 x i8], %class.btAlignedObjectArray.6, %class.btSpinMutex }>
%class.btDynamicsWorld = type { %class.btCollisionWorld.base, ptr, ptr, ptr, %struct.btContactSolverInfo }
%class.btCollisionWorld.base = type <{ ptr, %class.btAlignedObjectArray, ptr, %struct.btDispatcherInfo, ptr, ptr, i8 }>
%class.btAlignedObjectArray = type <{ [4 x i8], i32, i32, [4 x i8], ptr, i8, [7 x i8] }>
%struct.btDispatcherInfo = type <{ float, i32, i32, float, i8, [7 x i8], ptr, i8, i8, i8, i8, float, i8, [3 x i8], float, i8, [7 x i8] }>
%struct.btContactSolverInfo = type { %struct.btContactSolverInfoData }
%struct.btContactSolverInfoData = type { float, float, float, float, float, i32, float, float, float, float, float, float, float, float, float, float, i32, float, float, float, float, float, i32, i32, i32, float, float, float, float, i8, i8, i32, i32 }
%class.btAlignedObjectArray.0 = type <{ [4 x i8], i32, i32, [4 x i8], ptr, i8, [7 x i8] }>
%class.btAlignedObjectArray.2 = type <{ [4 x i8], i32, i32, [4 x i8], ptr, i8, [7 x i8] }>
%class.btVector3 = type { [4 x float] }
%class.btAlignedObjectArray.4 = type <{ [4 x i8], i32, i32, [4 x i8], ptr, i8, [7 x i8] }>
%class.btAlignedObjectArray.6 = type <{ [4 x i8], i32, i32, [4 x i8], ptr, i8, [7 x i8] }>
%class.btSpinMutex = type { i32 }
%class.btAlignedObjectArray.8 = type <{ [4 x i8], i32, i32, [4 x i8], ptr, i8, [7 x i8] }>
%class.btAlignedObjectArray.10 = type <{ [4 x i8], i32, i32, [4 x i8], ptr, i8, [7 x i8] }>
%class.btAlignedObjectArray.12 = type <{ [4 x i8], i32, i32, [4 x i8], ptr, i8, [7 x i8] }>
%class.btAlignedObjectArray.16 = type <{ [4 x i8], i32, i32, [4 x i8], ptr, i8, [7 x i8] }>
%class.btAlignedObjectArray.14 = type <{ [4 x i8], i32, i32, [4 x i8], ptr, i8, [7 x i8] }>
%class.btAlignedObjectArray.18 = type <{ [4 x i8], i32, i32, [4 x i8], ptr, i8, [7 x i8] }>

; Function Attrs: mustprogress uwtable
define linkonce_odr dso_local void @_ZN18btAlignedAllocatorIP21btMultiBodyConstraintLj16EE10deallocateEPS1_(ptr noundef nonnull align 1 dereferenceable(1) %0, ptr noundef %1) #2 comdat align 2 {
  %3 = alloca ptr, align 8
  %4 = alloca ptr, align 8
  store ptr %0, ptr %3, align 8, !tbaa !398
  store ptr %1, ptr %4, align 8, !tbaa !227
  %5 = load ptr, ptr %4, align 8, !tbaa !227
  call void @_Z21btAlignedFreeInternalPv(ptr noundef %5)
  ret void
}

; Function Attrs: mustprogress uwtable
define linkonce_odr dso_local noundef ptr @_ZN18btAlignedAllocatorIP21btMultiBodyConstraintLj16EE8allocateEiPPKS1_(ptr noundef nonnull align 1 dereferenceable(1) %0, i32 noundef %1, ptr noundef %2) #2 comdat align 2 {
  %4 = alloca ptr, align 8
  %5 = alloca i32, align 4
  %6 = alloca ptr, align 8
  store ptr %0, ptr %4, align 8, !tbaa !398
  store i32 %1, ptr %5, align 4, !tbaa !9
  store ptr %2, ptr %6, align 8, !tbaa !404
  %7 = load i32, ptr %5, align 4, !tbaa !9
  %8 = sext i32 %7 to i64
  %9 = mul i64 8, %8
  %10 = call noundef ptr @_Z22btAlignedAllocInternalmi(i64 noundef %9, i32 noundef 16)
  ret ptr %10
}

; Function Attrs: inlinehint mustprogress uwtable
define linkonce_odr dso_local void @_ZN20btAlignedObjectArrayIP21btMultiBodyConstraintE10deallocateEv(ptr noundef nonnull align 8 dereferenceable(25) %0) #3 comdat align 2 {
  %2 = alloca ptr, align 8
  store ptr %0, ptr %2, align 8, !tbaa !141
  %3 = load ptr, ptr %2, align 8
  %4 = getelementptr inbounds nuw %class.btAlignedObjectArray.10, ptr %3, i32 0, i32 4
  %5 = load ptr, ptr %4, align 8, !tbaa !147
  %6 = icmp ne ptr %5, null
  br i1 %6, label %7, label %16

7:                                                ; preds = %1
  %8 = getelementptr inbounds nuw %class.btAlignedObjectArray.10, ptr %3, i32 0, i32 5
  %9 = load i8, ptr %8, align 8, !tbaa !400, !range !42, !noundef !43
  %10 = trunc i8 %9 to i1
  br i1 %10, label %11, label %14

11:                                               ; preds = %7
  %12 = getelementptr inbounds nuw %class.btAlignedObjectArray.10, ptr %3, i32 0, i32 4
  %13 = load ptr, ptr %12, align 8, !tbaa !147
  call void @_ZN18btAlignedAllocatorIP21btMultiBodyConstraintLj16EE10deallocateEPS1_(ptr noundef nonnull align 1 dereferenceable(1) %3, ptr noundef %13)
  br label %14

14:                                               ; preds = %11, %7
  %15 = getelementptr inbounds nuw %class.btAlignedObjectArray.10, ptr %3, i32 0, i32 4
  store ptr null, ptr %15, align 8, !tbaa !147
  br label %16

16:                                               ; preds = %14, %1
  ret void
}

; Function Attrs: inlinehint mustprogress nounwind uwtable
define linkonce_odr dso_local void @_ZN20btAlignedObjectArrayIP21btMultiBodyConstraintE7destroyEii(ptr noundef nonnull align 8 dereferenceable(25) %0, i32 noundef %1, i32 noundef %2) #6 comdat align 2 {
  %4 = alloca ptr, align 8
  %5 = alloca i32, align 4
  %6 = alloca i32, align 4
  %7 = alloca i32, align 4
  store ptr %0, ptr %4, align 8, !tbaa !141
  store i32 %1, ptr %5, align 4, !tbaa !9
  store i32 %2, ptr %6, align 4, !tbaa !9
  call void @llvm.lifetime.start.p0(i64 4, ptr %7) #16
  %8 = load i32, ptr %5, align 4, !tbaa !9
  store i32 %8, ptr %7, align 4, !tbaa !9
  br label %9

9:                                                ; preds = %14, %3
  %10 = load i32, ptr %7, align 4, !tbaa !9
  %11 = load i32, ptr %6, align 4, !tbaa !9
  %12 = icmp slt i32 %10, %11
  br i1 %12, label %13, label %17

13:                                               ; preds = %9
  br label %14

14:                                               ; preds = %13
  %15 = load i32, ptr %7, align 4, !tbaa !9
  %16 = add nsw i32 %15, 1
  store i32 %16, ptr %7, align 4, !tbaa !9
  br label %9, !llvm.loop !402

17:                                               ; preds = %9
  call void @llvm.lifetime.end.p0(i64 4, ptr %7) #16
  ret void
}

; Function Attrs: inlinehint mustprogress nounwind uwtable
define linkonce_odr dso_local void @_ZNK20btAlignedObjectArrayIP21btMultiBodyConstraintE4copyEiiPS1_(ptr noundef nonnull align 8 dereferenceable(25) %0, i32 noundef %1, i32 noundef %2, ptr noundef %3) #6 comdat align 2 {
  %5 = alloca ptr, align 8
  %6 = alloca i32, align 4
  %7 = alloca i32, align 4
  %8 = alloca ptr, align 8
  %9 = alloca i32, align 4
  store ptr %0, ptr %5, align 8, !tbaa !141
  store i32 %1, ptr %6, align 4, !tbaa !9
  store i32 %2, ptr %7, align 4, !tbaa !9
  store ptr %3, ptr %8, align 8, !tbaa !227
  %10 = load ptr, ptr %5, align 8
  call void @llvm.lifetime.start.p0(i64 4, ptr %9) #16
  %11 = load i32, ptr %6, align 4, !tbaa !9
  store i32 %11, ptr %9, align 4, !tbaa !9
  br label %12

12:                                               ; preds = %27, %4
  %13 = load i32, ptr %9, align 4, !tbaa !9
  %14 = load i32, ptr %7, align 4, !tbaa !9
  %15 = icmp slt i32 %13, %14
  br i1 %15, label %16, label %30

16:                                               ; preds = %12
  %17 = load ptr, ptr %8, align 8, !tbaa !227
  %18 = load i32, ptr %9, align 4, !tbaa !9
  %19 = sext i32 %18 to i64
  %20 = getelementptr inbounds ptr, ptr %17, i64 %19
  %21 = getelementptr inbounds nuw %class.btAlignedObjectArray.10, ptr %10, i32 0, i32 4
  %22 = load ptr, ptr %21, align 8, !tbaa !147
  %23 = load i32, ptr %9, align 4, !tbaa !9
  %24 = sext i32 %23 to i64
  %25 = getelementptr inbounds ptr, ptr %22, i64 %24
  %26 = load ptr, ptr %25, align 8, !tbaa !60
  store ptr %26, ptr %20, align 8, !tbaa !60
  br label %27

27:                                               ; preds = %16
  %28 = load i32, ptr %9, align 4, !tbaa !9
  %29 = add nsw i32 %28, 1
  store i32 %29, ptr %9, align 4, !tbaa !9
  br label %12, !llvm.loop !403

30:                                               ; preds = %12
  call void @llvm.lifetime.end.p0(i64 4, ptr %9) #16
  ret void
}

; Function Attrs: inlinehint mustprogress uwtable
define linkonce_odr dso_local noundef ptr @_ZN20btAlignedObjectArrayIP21btMultiBodyConstraintE8allocateEi(ptr noundef nonnull align 8 dereferenceable(25) %0, i32 noundef %1) #3 comdat align 2 {
  %3 = alloca ptr, align 8
  %4 = alloca ptr, align 8
  %5 = alloca i32, align 4
  store ptr %0, ptr %4, align 8, !tbaa !141
  store i32 %1, ptr %5, align 4, !tbaa !9
  %6 = load ptr, ptr %4, align 8
  %7 = load i32, ptr %5, align 4, !tbaa !9
  %8 = icmp ne i32 %7, 0
  br i1 %8, label %9, label %12

9:                                                ; preds = %2
  %10 = load i32, ptr %5, align 4, !tbaa !9
  %11 = call noundef ptr @_ZN18btAlignedAllocatorIP21btMultiBodyConstraintLj16EE8allocateEiPPKS1_(ptr noundef nonnull align 1 dereferenceable(1) %6, i32 noundef %10, ptr noundef null)
  store ptr %11, ptr %3, align 8
  br label %13

12:                                               ; preds = %2
  store ptr null, ptr %3, align 8
  br label %13

13:                                               ; preds = %12, %9
  %14 = load ptr, ptr %3, align 8
  ret ptr %14
}

; Function Attrs: inlinehint mustprogress uwtable
define linkonce_odr dso_local void @_ZN20btAlignedObjectArrayIP21btMultiBodyConstraintE7reserveEi(ptr noundef nonnull align 8 dereferenceable(25) %0, i32 noundef %1) #3 comdat align 2 {
  %3 = alloca ptr, align 8
  %4 = alloca i32, align 4
  %5 = alloca ptr, align 8
  store ptr %0, ptr %3, align 8, !tbaa !141
  store i32 %1, ptr %4, align 4, !tbaa !9
  %6 = load ptr, ptr %3, align 8
  %7 = call noundef i32 @_ZNK20btAlignedObjectArrayIP21btMultiBodyConstraintE8capacityEv(ptr noundef nonnull align 8 dereferenceable(25) %6)
  %8 = load i32, ptr %4, align 4, !tbaa !9
  %9 = icmp slt i32 %7, %8
  br i1 %9, label %10, label %21

10:                                               ; preds = %2
  call void @llvm.lifetime.start.p0(i64 8, ptr %5) #16
  %11 = load i32, ptr %4, align 4, !tbaa !9
  %12 = call noundef ptr @_ZN20btAlignedObjectArrayIP21btMultiBodyConstraintE8allocateEi(ptr noundef nonnull align 8 dereferenceable(25) %6, i32 noundef %11)
  store ptr %12, ptr %5, align 8, !tbaa !227
  %13 = call noundef i32 @_ZNK20btAlignedObjectArrayIP21btMultiBodyConstraintE4sizeEv(ptr noundef nonnull align 8 dereferenceable(25) %6)
  %14 = load ptr, ptr %5, align 8, !tbaa !227
  call void @_ZNK20btAlignedObjectArrayIP21btMultiBodyConstraintE4copyEiiPS1_(ptr noundef nonnull align 8 dereferenceable(25) %6, i32 noundef 0, i32 noundef %13, ptr noundef %14)
  %15 = call noundef i32 @_ZNK20btAlignedObjectArrayIP21btMultiBodyConstraintE4sizeEv(ptr noundef nonnull align 8 dereferenceable(25) %6)
  call void @_ZN20btAlignedObjectArrayIP21btMultiBodyConstraintE7destroyEii(ptr noundef nonnull align 8 dereferenceable(25) %6, i32 noundef 0, i32 noundef %15)
  call void @_ZN20btAlignedObjectArrayIP21btMultiBodyConstraintE10deallocateEv(ptr noundef nonnull align 8 dereferenceable(25) %6)
  %16 = getelementptr inbounds nuw %class.btAlignedObjectArray.10, ptr %6, i32 0, i32 5
  store i8 1, ptr %16, align 8, !tbaa !400
  %17 = load ptr, ptr %5, align 8, !tbaa !227
  %18 = getelementptr inbounds nuw %class.btAlignedObjectArray.10, ptr %6, i32 0, i32 4
  store ptr %17, ptr %18, align 8, !tbaa !147
  %19 = load i32, ptr %4, align 4, !tbaa !9
  %20 = getelementptr inbounds nuw %class.btAlignedObjectArray.10, ptr %6, i32 0, i32 2
  store i32 %19, ptr %20, align 8, !tbaa !401
  call void @llvm.lifetime.end.p0(i64 8, ptr %5) #16
  br label %21

21:                                               ; preds = %10, %2
  ret void
}

; Function Attrs: inlinehint mustprogress nounwind uwtable
define linkonce_odr dso_local noundef i32 @_ZN20btAlignedObjectArrayIP21btMultiBodyConstraintE9allocSizeEi(ptr noundef nonnull align 8 dereferenceable(25) %0, i32 noundef %1) #6 comdat align 2 {
  %3 = alloca ptr, align 8
  %4 = alloca i32, align 4
  store ptr %0, ptr %3, align 8, !tbaa !141
  store i32 %1, ptr %4, align 4, !tbaa !9
  %5 = load i32, ptr %4, align 4, !tbaa !9
  %6 = icmp ne i32 %5, 0
  br i1 %6, label %7, label %10

7:                                                ; preds = %2
  %8 = load i32, ptr %4, align 4, !tbaa !9
  %9 = mul nsw i32 %8, 2
  br label %11

10:                                               ; preds = %2
  br label %11

11:                                               ; preds = %10, %7
  %12 = phi i32 [ %9, %7 ], [ 1, %10 ]
  ret i32 %12
}

; Function Attrs: inlinehint mustprogress nounwind uwtable
define linkonce_odr dso_local noundef i32 @_ZNK20btAlignedObjectArrayIP21btMultiBodyConstraintE8capacityEv(ptr noundef nonnull align 8 dereferenceable(25) %0) #6 comdat align 2 {
  %2 = alloca ptr, align 8
  store ptr %0, ptr %2, align 8, !tbaa !141
  %3 = load ptr, ptr %2, align 8
  %4 = getelementptr inbounds nuw %class.btAlignedObjectArray.10, ptr %3, i32 0, i32 2
  %5 = load i32, ptr %4, align 8, !tbaa !401
  ret i32 %5
}

; Function Attrs: inlinehint mustprogress nounwind uwtable
define linkonce_odr dso_local noundef i32 @_ZNK20btAlignedObjectArrayIP21btMultiBodyConstraintE4sizeEv(ptr noundef nonnull align 8 dereferenceable(25) %0) #6 comdat align 2 {
  %2 = alloca ptr, align 8
  store ptr %0, ptr %2, align 8, !tbaa !141
  %3 = load ptr, ptr %2, align 8
  %4 = getelementptr inbounds nuw %class.btAlignedObjectArray.10, ptr %3, i32 0, i32 1
  %5 = load i32, ptr %4, align 4, !tbaa !143
  ret i32 %5
}

; Function Attrs: inlinehint mustprogress uwtable
define linkonce_odr dso_local void @_ZN20btAlignedObjectArrayIP21btMultiBodyConstraintE9push_backERKS1_(ptr noundef nonnull align 8 dereferenceable(25) %0, ptr noundef nonnull align 8 dereferenceable(8) %1) #3 comdat align 2 {
  %3 = alloca ptr, align 8
  %4 = alloca ptr, align 8
  %5 = alloca i32, align 4
  store ptr %0, ptr %3, align 8, !tbaa !141
  store ptr %1, ptr %4, align 8, !tbaa !227
  %6 = load ptr, ptr %3, align 8
  call void @llvm.lifetime.start.p0(i64 4, ptr %5) #16
  %7 = call noundef i32 @_ZNK20btAlignedObjectArrayIP21btMultiBodyConstraintE4sizeEv(ptr noundef nonnull align 8 dereferenceable(25) %6)
  store i32 %7, ptr %5, align 4, !tbaa !9
  %8 = load i32, ptr %5, align 4, !tbaa !9
  %9 = call noundef i32 @_ZNK20btAlignedObjectArrayIP21btMultiBodyConstraintE8capacityEv(ptr noundef nonnull align 8 dereferenceable(25) %6)
  %10 = icmp eq i32 %8, %9
  br i1 %10, label %11, label %14

11:                                               ; preds = %2
  %12 = call noundef i32 @_ZNK20btAlignedObjectArrayIP21btMultiBodyConstraintE4sizeEv(ptr noundef nonnull align 8 dereferenceable(25) %6)
  %13 = call noundef i32 @_ZN20btAlignedObjectArrayIP21btMultiBodyConstraintE9allocSizeEi(ptr noundef nonnull align 8 dereferenceable(25) %6, i32 noundef %12)
  call void @_ZN20btAlignedObjectArrayIP21btMultiBodyConstraintE7reserveEi(ptr noundef nonnull align 8 dereferenceable(25) %6, i32 noundef %13)
  br label %14

14:                                               ; preds = %11, %2
  %15 = getelementptr inbounds nuw %class.btAlignedObjectArray.10, ptr %6, i32 0, i32 4
  %16 = load ptr, ptr %15, align 8, !tbaa !147
  %17 = getelementptr inbounds nuw %class.btAlignedObjectArray.10, ptr %6, i32 0, i32 1
  %18 = load i32, ptr %17, align 4, !tbaa !143
  %19 = sext i32 %18 to i64
  %20 = getelementptr inbounds ptr, ptr %16, i64 %19
  %21 = load ptr, ptr %4, align 8, !tbaa !227
  %22 = load ptr, ptr %21, align 8, !tbaa !60
  store ptr %22, ptr %20, align 8, !tbaa !60
  %23 = getelementptr inbounds nuw %class.btAlignedObjectArray.10, ptr %6, i32 0, i32 1
  %24 = load i32, ptr %23, align 4, !tbaa !143
  %25 = add nsw i32 %24, 1
  store i32 %25, ptr %23, align 4, !tbaa !143
  call void @llvm.lifetime.end.p0(i64 4, ptr %5) #16
  ret void
}

; Function Attrs: mustprogress uwtable
define dso_local void @_ZN24btMultiBodyDynamicsWorld22addMultiBodyConstraintEP21btMultiBodyConstraint(ptr noundef nonnull align 8 dereferenceable(848) %0, ptr noundef %1) unnamed_addr #2 align 2 {
  %3 = alloca ptr, align 8
  %4 = alloca ptr, align 8
  store ptr %0, ptr %3, align 8, !tbaa !12
  store ptr %1, ptr %4, align 8, !tbaa !60
  %5 = load ptr, ptr %3, align 8
  %6 = getelementptr inbounds nuw %class.btMultiBodyDynamicsWorld, ptr %5, i32 0, i32 3
  call void @_ZN20btAlignedObjectArrayIP21btMultiBodyConstraintE9push_backERKS1_(ptr noundef nonnull align 8 dereferenceable(25) %6, ptr noundef nonnull align 8 dereferenceable(8) %4)
  ret void
}