; Function Attrs: mustprogress uwtable
define dso_local void @_ZN24btMultiBodyDynamicsWorld22addMultiBodyConstraintEP21btMultiBodyConstraint(ptr noundef nonnull align 8 captures(none) dereferenceable(848) %0, ptr noundef %1) unnamed_addr #0 align 2 {
  %3 = getelementptr inbounds nuw i8, ptr %0, i64 548
  %4 = load i32, ptr %3, align 4, !tbaa !138
  %5 = getelementptr inbounds nuw i8, ptr %0, i64 552
  %6 = load i32, ptr %5, align 8, !tbaa !158
  %7 = icmp eq i32 %4, %6
  br i1 %7, label %8, label %_ZN20btAlignedObjectArrayIP21btMultiBodyConstraintE9push_backERKS1_.exit

8:                                                ; preds = %2
  %.not.i.i = icmp eq i32 %4, 0
  %9 = shl nsw i32 %4, 1
  %10 = select i1 %.not.i.i, i32 1, i32 %9
  %11 = icmp slt i32 %4, %10
  br i1 %11, label %12, label %_ZN20btAlignedObjectArrayIP21btMultiBodyConstraintE9push_backERKS1_.exit

12:                                               ; preds = %8
  %.not.i.i.i = icmp eq i32 %10, 0
  br i1 %.not.i.i.i, label %_ZN20btAlignedObjectArrayIP21btMultiBodyConstraintE8allocateEi.exit.i.i, label %13

13:                                               ; preds = %12
  %14 = sext i32 %10 to i64
  %15 = shl nsw i64 %14, 3
  %16 = tail call noundef ptr @_Z22btAlignedAllocInternalmi(i64 noundef %15, i32 noundef 16)
  %.pre.i = load i32, ptr %3, align 4, !tbaa !138
  br label %_ZN20btAlignedObjectArrayIP21btMultiBodyConstraintE8allocateEi.exit.i.i

_ZN20btAlignedObjectArrayIP21btMultiBodyConstraintE8allocateEi.exit.i.i: ; preds = %13, %12
  %17 = phi i32 [ %.pre.i, %13 ], [ %4, %12 ]
  %.0.i.i.i = phi ptr [ %16, %13 ], [ null, %12 ]
  %18 = icmp sgt i32 %17, 0
  %19 = getelementptr inbounds nuw i8, ptr %0, i64 560
  %20 = load ptr, ptr %19, align 8, !tbaa !144
  br i1 %18, label %.lr.ph.i.i.i, label %_ZNK20btAlignedObjectArrayIP21btMultiBodyConstraintE4copyEiiPS1_.exit.i.i

.lr.ph.i.i.i:                                     ; preds = %_ZN20btAlignedObjectArrayIP21btMultiBodyConstraintE8allocateEi.exit.i.i
  %wide.trip.count.i.i.i = zext nneg i32 %17 to i64
  br label %21

21:                                               ; preds = %21, %.lr.ph.i.i.i
  %indvars.iv.i.i.i = phi i64 [ 0, %.lr.ph.i.i.i ], [ %indvars.iv.next.i.i.i, %21 ]
  %22 = getelementptr inbounds nuw ptr, ptr %.0.i.i.i, i64 %indvars.iv.i.i.i
  %23 = getelementptr inbounds nuw ptr, ptr %20, i64 %indvars.iv.i.i.i
  %24 = load ptr, ptr %23, align 8, !tbaa !145
  store ptr %24, ptr %22, align 8, !tbaa !145
  %indvars.iv.next.i.i.i = add nuw nsw i64 %indvars.iv.i.i.i, 1
  %exitcond.not.i.i.i = icmp eq i64 %indvars.iv.next.i.i.i, %wide.trip.count.i.i.i
  br i1 %exitcond.not.i.i.i, label %_ZNK20btAlignedObjectArrayIP21btMultiBodyConstraintE4copyEiiPS1_.exit.thread.i.i, label %21, !llvm.loop !212

_ZNK20btAlignedObjectArrayIP21btMultiBodyConstraintE4copyEiiPS1_.exit.i.i: ; preds = %_ZN20btAlignedObjectArrayIP21btMultiBodyConstraintE8allocateEi.exit.i.i
  %.not.i5.i.i = icmp eq ptr %20, null
  br i1 %.not.i5.i.i, label %_ZN20btAlignedObjectArrayIP21btMultiBodyConstraintE10deallocateEv.exit.i.i, label %_ZNK20btAlignedObjectArrayIP21btMultiBodyConstraintE4copyEiiPS1_.exit.thread.i.i

_ZNK20btAlignedObjectArrayIP21btMultiBodyConstraintE4copyEiiPS1_.exit.thread.i.i: ; preds = %21, %_ZNK20btAlignedObjectArrayIP21btMultiBodyConstraintE4copyEiiPS1_.exit.i.i
  %25 = getelementptr inbounds nuw i8, ptr %0, i64 568
  %26 = load i8, ptr %25, align 8, !tbaa !157, !range !20, !noundef !21
  %27 = trunc nuw i8 %26 to i1
  br i1 %27, label %28, label %_ZN20btAlignedObjectArrayIP21btMultiBodyConstraintE10deallocateEv.exit.i.i

28:                                               ; preds = %_ZNK20btAlignedObjectArrayIP21btMultiBodyConstraintE4copyEiiPS1_.exit.thread.i.i
  tail call void @_Z21btAlignedFreeInternalPv(ptr noundef nonnull %20)
  %.pre2.pre.pre.i = load i32, ptr %3, align 4, !tbaa !138
  br label %_ZN20btAlignedObjectArrayIP21btMultiBodyConstraintE10deallocateEv.exit.i.i

_ZN20btAlignedObjectArrayIP21btMultiBodyConstraintE10deallocateEv.exit.i.i: ; preds = %28, %_ZNK20btAlignedObjectArrayIP21btMultiBodyConstraintE4copyEiiPS1_.exit.thread.i.i, %_ZNK20btAlignedObjectArrayIP21btMultiBodyConstraintE4copyEiiPS1_.exit.i.i
  %.pre2.i = phi i32 [ %17, %_ZNK20btAlignedObjectArrayIP21btMultiBodyConstraintE4copyEiiPS1_.exit.i.i ], [ %.pre2.pre.pre.i, %28 ], [ %17, %_ZNK20btAlignedObjectArrayIP21btMultiBodyConstraintE4copyEiiPS1_.exit.thread.i.i ]
  %29 = getelementptr inbounds nuw i8, ptr %0, i64 568
  store i8 1, ptr %29, align 8, !tbaa !157
  store ptr %.0.i.i.i, ptr %19, align 8, !tbaa !144
  store i32 %10, ptr %5, align 8, !tbaa !158
  br label %_ZN20btAlignedObjectArrayIP21btMultiBodyConstraintE9push_backERKS1_.exit

_ZN20btAlignedObjectArrayIP21btMultiBodyConstraintE9push_backERKS1_.exit: ; preds = %2, %8, %_ZN20btAlignedObjectArrayIP21btMultiBodyConstraintE10deallocateEv.exit.i.i
  %30 = phi i32 [ %.pre2.i, %_ZN20btAlignedObjectArrayIP21btMultiBodyConstraintE10deallocateEv.exit.i.i ], [ %4, %8 ], [ %4, %2 ]
  %31 = getelementptr inbounds nuw i8, ptr %0, i64 560
  %32 = load ptr, ptr %31, align 8, !tbaa !144
  %33 = sext i32 %30 to i64
  %34 = getelementptr inbounds ptr, ptr %32, i64 %33
  store ptr %1, ptr %34, align 8, !tbaa !145
  %35 = add nsw i32 %30, 1
  store i32 %35, ptr %3, align 4, !tbaa !138
  ret void
}